; Function Attrs: mustprogress uwtable
define hidden void @_ZN7datalog12boogie_proof8pp_stepsERSoR6vectorINS0_4stepELb1EjE(ptr nocapture noundef nonnull readonly align 8 dereferenceable(32) %this, ptr noundef nonnull align 8 dereferenceable(8) %out, ptr nocapture noundef nonnull readonly align 8 dereferenceable(8) %steps) local_unnamed_addr #3 align 2 {
entry:
  %call = tail call noundef nonnull align 8 dereferenceable(8) ptr @_ZStlsISt11char_traitsIcEERSt13basic_ostreamIcT_ES5_PKc(ptr noundef nonnull align 8 dereferenceable(8) %out, ptr noundef nonnull @.str)
  br label %for.cond

for.cond:                                         ; preds = %for.body, %entry
  %indvars.iv = phi i64 [ %indvars.iv.next, %for.body ], [ 0, %entry ]
  %0 = load ptr, ptr %steps, align 8
  %cmp.i = icmp eq ptr %0, null
  br i1 %cmp.i, label %_ZNK6vectorIN7datalog12boogie_proof4stepELb1EjE4sizeEv.exit, label %if.end.i

if.end.i:                                         ; preds = %for.cond
  %arrayidx.i = getelementptr inbounds i8, ptr %0, i64 -4
  %1 = load i32, ptr %arrayidx.i, align 4
  br label %_ZNK6vectorIN7datalog12boogie_proof4stepELb1EjE4sizeEv.exit

_ZNK6vectorIN7datalog12boogie_proof4stepELb1EjE4sizeEv.exit: ; preds = %for.cond, %if.end.i
  %retval.0.i = phi i32 [ %1, %if.end.i ], [ 0, %for.cond ]
  %2 = zext i32 %retval.0.i to i64
  %cmp = icmp ult i64 %indvars.iv, %2
  br i1 %cmp, label %for.body, label %for.end

for.body:                                         ; preds = %_ZNK6vectorIN7datalog12boogie_proof4stepELb1EjE4sizeEv.exit
  %arrayidx.i7 = getelementptr inbounds %"struct.datalog::boogie_proof::step", ptr %0, i64 %indvars.iv
  %3 = trunc i64 %indvars.iv to i32
  tail call void @_ZN7datalog12boogie_proof7pp_stepERSojRNS0_4stepE(ptr noundef nonnull align 8 dereferenceable(32) %this, ptr noundef nonnull align 8 dereferenceable(8) %out, i32 noundef %3, ptr noundef nonnull align 8 dereferenceable(40) %arrayidx.i7)
  %indvars.iv.next = add nuw nsw i64 %indvars.iv, 1
  br label %for.cond, !llvm.loop !24

for.end:                                          ; preds = %_ZNK6vectorIN7datalog12boogie_proof4stepELb1EjE4sizeEv.exit
  %call4 = tail call noundef nonnull align 8 dereferenceable(8) ptr @_ZStlsISt11char_traitsIcEERSt13basic_ostreamIcT_ES5_PKc(ptr noundef nonnull align 8 dereferenceable(8) %out, ptr noundef nonnull @.str.1)
  ret void
}